(dp0
S'gr_2'
p1
(dp2
S'S'
p3
(lp4
S'a'
p5
aS'bB'
p6
asS'B'
p7
(lp8
S'bB'
p9
aS'aS'
p10
aS'cC'
p11
asS'C'
p12
(lp13
S'aS'
p14
aS'bB'
p15
aS'cC'
p16
assS'gr_3'
p17
(dp18
S'A'
p19
(lp20
S'a'
p21
aS'aS'
p22
aS'bB'
p23
asS'S'
p24
(lp25
S'aA'
p26
asS'B'
p27
(lp28
S'b'
p29
aS'bS'
p30
assS'gr_1'
p31
(dp32
g24
(lp33
S'aS'
p34
aS'a'
p35
assS'gr_4'
p36
g18
s.