(dp0
S'gr_random'
p1
(lp2
S'A'
p3
a(dp4
g3
(lp5
S'aA'
p6
aS'b'
p7
aS'cS'
p8
asS'S'
p9
(lp10
S'cA'
p11
asasS'gr_1'
p12
(lp13
g9
a(dp14
g9
(lp15
S'aS'
p16
aS'a'
p17
aS'bS'
p18
ag7
aS'cC'
p19
asS'C'
p20
(lp21
S'cC'
p22
aS'c'
p23
asas.