(dp0
S'gr_3'
p1
(lp2
S'S'
p3
a(dp4
S'A'
p5
(lp6
S'c'
p7
asg3
(lp8
S'aA'
p9
aS'bB'
p10
asS'B'
p11
(lp12
g7
asasS'gr_main'
p13
(lp14
S'S'
p15
a(dp16
S'A'
p17
(lp18
S'a'
p19
aS'aT'
p20
aS'bC'
p21
asS'C'
p22
(lp23
S'bA'
p24
aS'aB'
p25
asS'B'
p26
(lp27
S'b'
p28
aS'bT'
p29
aS'aC'
p30
asg15
(lp31
S'&'
p32
aS'aA'
p33
aS'bB'
p34
asS'T'
p35
(lp36
S'aA'
p37
aS'bB'
p38
asasS'gr_1'
p39
(lp40
S'S'
p41
a(dp42
g41
(lp43
S'aS'
p44
aS'a'
p45
aS'bB'
p46
asS'B'
p47
(lp48
S'bS'
p49
aS'c'
p50
aS'cC'
p51
asS'C'
p52
(lp53
S'cS'
p54
aS'b'
p55
asasS'gr_test2'
p56
(lp57
S'S'
p58
a(dp59
g58
(lp60
S'&'
p61
aS'a'
p62
aS'bB'
p63
asS'B'
p64
(lp65
S'bB'
p66
aS'aB'
p67
aS'b'
p68
asasS'gramatica_a_par'
p69
(lp70
S'S'
p71
a(dp72
S'A'
p73
(lp74
S'bA'
p75
aS'a'
p76
aS'aS'
p77
asg71
(lp78
g76
aS'bS'
p79
aS'b'
p80
aS'aA'
p81
asasS'gr_test'
p82
(lp83
S'S'
p84
a(dp85
g84
(lp86
S'aS'
p87
aS'a'
p88
aS'bB'
p89
asS'B'
p90
(lp91
S'b'
p92
aS'bS'
p93
aS'aS'
p94
ag88
asasS'gr_random'
p95
(lp96
S'A'
p97
a(dp98
g97
(lp99
S'aA'
p100
aS'b'
p101
aS'cS'
p102
asS'S'
p103
(lp104
S'cA'
p105
asas.