(dp0
S'gr_3'
p1
(lp2
S'S'
p3
a(dp4
S'A'
p5
(lp6
S'c'
p7
asg3
(lp8
S'aA'
p9
aS'bB'
p10
asS'B'
p11
(lp12
g7
asasS'gr_random'
p13
(lp14
S'A'
p15
a(dp16
g15
(lp17
S'aA'
p18
aS'b'
p19
aS'cS'
p20
asS'S'
p21
(lp22
S'cA'
p23
asasS'gr_1'
p24
(lp25
S'S'
p26
a(dp27
g26
(lp28
S'aS'
p29
aS'a'
p30
aS'bB'
p31
asS'B'
p32
(lp33
S'bS'
p34
aS'c'
p35
aS'cC'
p36
asS'C'
p37
(lp38
S'cS'
p39
aS'b'
p40
asasS'gr_test'
p41
(lp42
S'S'
p43
a(dp44
g43
(lp45
S'aS'
p46
aS'a'
p47
aS'bB'
p48
asS'B'
p49
(lp50
S'b'
p51
aS'bS'
p52
aS'aS'
p53
ag47
asas.