(dp0
S'gr_2'
p1
(dp2
S'S'
p3
(lp4
S'a'
p5
aS'bB'
p6
aS'cC'
p7
asS'B'
p8
(lp9
S'bB'
p10
aS'aS'
p11
aS'cC'
p12
asS'C'
p13
(lp14
S'aS'
p15
aS'bB'
p16
aS'cC'
p17
assS'gr_3'
p18
(dp19
S'A'
p20
(lp21
S'c'
p22
aS'cA'
p23
aS'bA'
p24
asS'S'
p25
(lp26
S'aS'
p27
aS'b'
p28
aS'bS'
p29
aS'aA'
p30
ag22
aS'cC'
p31
asS'C'
p32
(lp33
S'd'
p34
aS'dC'
p35
assS'gr_1'
p36
(dp37
S'S'
p38
(lp39
S'aS'
p40
aS'a'
p41
assS'gr_6'
p42
(dp43
g20
(lp44
g22
ag23
ag24
asg25
(lp45
g27
ag28
ag29
ag30
ag22
ag31
asg32
(lp46
g34
ag35
aS'dD'
p47
asS'D'
p48
(lp49
S'a'
p50
assS'gr_4'
p51
(dp52
g20
(lp53
g22
ag23
ag24
asg25
(lp54
g27
ag28
ag29
ag30
ag22
ag31
ag50
asg32
(lp55
g34
ag35
assS'gr_5'
p56
(dp57
S'A'
p58
(lp59
S'a'
p60
aS'aS'
p61
aS'bB'
p62
asS'C'
p63
(lp64
S'dD'
p65
asS'B'
p66
(lp67
S'b'
p68
aS'bS'
p69
aS'cC'
p70
asS'E'
p71
(lp72
S'cE'
p73
aS'cF'
p74
asS'D'
p75
(lp76
S'dD'
p77
aS'dS'
p78
asS'F'
p79
(lp80
S'aS'
p81
asg38
(lp82
S'aA'
p83
aS'cE'
p84
assS'my_first_grammar'
p85
(dp86
g25
(lp87
S'aS'
p88
aS'bS'
p89
ass.