(dp0
S'gr_main'
p1
(lp2
S'S'
p3
a(dp4
S'A'
p5
(lp6
S'a'
p7
aS'aT'
p8
aS'bC'
p9
asS'C'
p10
(lp11
S'bA'
p12
aS'aB'
p13
asg3
(lp14
S'&'
p15
aS'aA'
p16
aS'bB'
p17
asS'B'
p18
(lp19
S'b'
p20
aS'bT'
p21
aS'aC'
p22
asS'T'
p23
(lp24
S'aA'
p25
aS'bB'
p26
asasS'gr_3'
p27
(lp28
S'S'
p29
a(dp30
S'A'
p31
(lp32
S'c'
p33
asg29
(lp34
S'aA'
p35
aS'bB'
p36
asS'B'
p37
(lp38
g33
asasS'gr_random'
p39
(lp40
S'A'
p41
a(dp42
g41
(lp43
S'aA'
p44
aS'b'
p45
aS'cS'
p46
asS'S'
p47
(lp48
S'cA'
p49
asasS'gr_1'
p50
(lp51
S'S'
p52
a(dp53
g52
(lp54
S'aS'
p55
aS'a'
p56
aS'bB'
p57
asS'B'
p58
(lp59
S'bS'
p60
aS'c'
p61
aS'cC'
p62
asS'C'
p63
(lp64
S'cS'
p65
aS'b'
p66
asasS'gr_test'
p67
(lp68
S'S'
p69
a(dp70
g69
(lp71
S'aS'
p72
aS'a'
p73
aS'bB'
p74
asS'B'
p75
(lp76
S'b'
p77
aS'bS'
p78
aS'aS'
p79
ag73
asas.