(dp0
S'regex-1'
p1
(lp2
S'(ab|ba)*'
p3
a(lp4
(dp5
S'*'
p6
(dp7
S'|'
p8
(lp9
(lp10
S'a'
p11
aS'b'
p12
aa(lp13
g12
ag11
aassaasS'regex-3'
p14
(lp15
S'a?((ab)+(ba)*)+b?'
p16
a(lp17
(dp18
S'?'
p19
S'a'
p20
sa(dp21
S'+'
p22
(lp23
(dp24
g22
(lp25
g20
aS'b'
p26
asa(dp27
S'*'
p28
(lp29
g26
ag20
asasa(dp30
g19
g26
saasS'regex-2'
p31
(lp32
S'baba'
p33
a(lp34
g26
ag20
ag26
ag20
aas.