(dp0
S'lista2_4a'
p1
(lp2
S'S'
p3
a(dp4
S'A'
p5
(lp6
S'aB'
p7
aS'bA'
p8
aS'a'
p9
asS'C'
p10
(lp11
S'aD'
p12
aS'bC'
p13
aS'b'
p14
asS'B'
p15
(lp16
S'bB'
p17
aS'aA'
p18
ag14
asg3
(lp19
S'aB'
p20
aS'aD'
p21
aS'bA'
p22
aS'bC'
p23
ag9
ag14
aS'&'
p24
asS'D'
p25
(lp26
S'aC'
p27
aS'bD'
p28
ag9
asasS'example_1'
p29
(lp30
S'S'
p31
a(dp32
S'A'
p33
(lp34
S'bB'
p35
asg31
(lp36
S'aS'
p37
aS'bS'
p38
aS'aA'
p39
asS'B'
p40
(lp41
S'b'
p42
asasS'gr_3'
p43
(lp44
S'S'
p45
a(dp46
S'A'
p47
(lp48
S'c'
p49
asg45
(lp50
S'aA'
p51
aS'bB'
p52
asS'B'
p53
(lp54
g49
asasS'gr_main'
p55
(lp56
S'S'
p57
a(dp58
S'A'
p59
(lp60
S'a'
p61
aS'aT'
p62
aS'bC'
p63
asS'C'
p64
(lp65
S'bA'
p66
aS'aB'
p67
asS'B'
p68
(lp69
S'b'
p70
aS'bT'
p71
aS'aC'
p72
asg57
(lp73
S'&'
p74
aS'aA'
p75
aS'bB'
p76
asS'T'
p77
(lp78
S'aA'
p79
aS'bB'
p80
asasS'gr_1'
p81
(lp82
S'S'
p83
a(dp84
g83
(lp85
S'aS'
p86
aS'a'
p87
aS'bB'
p88
asS'B'
p89
(lp90
S'bS'
p91
aS'c'
p92
aS'cC'
p93
asS'C'
p94
(lp95
S'cS'
p96
aS'b'
p97
asasS'gr_test2'
p98
(lp99
S'S'
p100
a(dp101
g100
(lp102
S'&'
p103
aS'a'
p104
aS'bB'
p105
asS'B'
p106
(lp107
S'bB'
p108
aS'aB'
p109
aS'b'
p110
asasS'filename'
p111
(lp112
Na(dp113
asS'gramatica_a_par'
p114
(lp115
S'S'
p116
a(dp117
S'A'
p118
(lp119
S'bA'
p120
aS'a'
p121
aS'aS'
p122
asg116
(lp123
g121
aS'bS'
p124
aS'b'
p125
aS'aA'
p126
asasS'gr_11a'
p127
(lp128
S'S'
p129
a(dp130
S'A'
p131
(lp132
S'a'
p133
aS'aS'
p134
aS'bB'
p135
asg129
(lp136
S'aA'
p137
aS'b'
p138
aS'bC'
p139
asS'B'
p140
(lp141
g133
aS'aS'
p142
asS'C'
p143
(lp144
S'aA'
p145
asasS'gr_test'
p146
(lp147
S'S'
p148
a(dp149
g148
(lp150
S'aS'
p151
aS'a'
p152
aS'bB'
p153
asS'B'
p154
(lp155
S'b'
p156
aS'bS'
p157
aS'aS'
p158
ag152
asasS'gr_random'
p159
(lp160
S'A'
p161
a(dp162
g161
(lp163
S'aA'
p164
aS'b'
p165
aS'cS'
p166
asS'S'
p167
(lp168
S'cA'
p169
asasS'gr_a_par_sem_bb'
p170
(lp171
S'S'
p172
a(dp173
S'A'
p174
(lp175
S'a'
p176
aS'aZ'
p177
aS'bC'
p178
asg172
(lp179
S'&'
p180
aS'b'
p181
aS'aA'
p182
aS'bB'
p183
asS'B'
p184
(lp185
S'aA'
p186
asS'Z'
p187
(lp188
g181
aS'aA'
p189
aS'bB'
p190
asS'C'
p191
(lp192
g176
aS'aZ'
p193
asasS'test_sentence'
p194
(lp195
S'S'
p196
a(dp197
S'A'
p198
(lp199
S'bA'
p200
aS'a'
p201
aS'bB'
p202
asg196
(lp203
S'aA'
p204
asS'B'
p205
(lp206
S'c'
p207
aS'cA'
p208
asas.