(dp0
S'gramatica_a_par'
p1
(lp2
S'S'
p3
a(dp4
S'A'
p5
(lp6
S'bA'
p7
aS'a'
p8
aS'aS'
p9
asg3
(lp10
g8
aS'bS'
p11
aS'b'
p12
aS'aA'
p13
asasS'gr_1'
p14
(lp15
S'S'
p16
a(dp17
g16
(lp18
S'aS'
p19
aS'a'
p20
aS'bB'
p21
asS'B'
p22
(lp23
S'bS'
p24
aS'c'
p25
aS'cC'
p26
asS'C'
p27
(lp28
S'cS'
p29
aS'b'
p30
asasS'gr_3'
p31
(lp32
S'S'
p33
a(dp34
S'A'
p35
(lp36
S'c'
p37
asg33
(lp38
S'aA'
p39
aS'bB'
p40
asS'B'
p41
(lp42
g37
asasS'gr_main'
p43
(lp44
S'S'
p45
a(dp46
S'A'
p47
(lp48
S'a'
p49
aS'aT'
p50
aS'bC'
p51
asS'C'
p52
(lp53
S'bA'
p54
aS'aB'
p55
asS'B'
p56
(lp57
S'b'
p58
aS'bT'
p59
aS'aC'
p60
asg45
(lp61
S'&'
p62
aS'aA'
p63
aS'bB'
p64
asS'T'
p65
(lp66
S'aA'
p67
aS'bB'
p68
asasS'example_1'
p69
(lp70
S'S'
p71
a(dp72
S'A'
p73
(lp74
S'bB'
p75
asg71
(lp76
S'aS'
p77
aS'bS'
p78
aS'aA'
p79
asS'B'
p80
(lp81
S'b'
p82
asasS'gr_test2'
p83
(lp84
S'S'
p85
a(dp86
g85
(lp87
S'&'
p88
aS'a'
p89
aS'bB'
p90
asS'B'
p91
(lp92
S'bB'
p93
aS'aB'
p94
aS'b'
p95
asasS'filename'
p96
(lp97
Na(dp98
asS'lista2_4a'
p99
(lp100
S'S'
p101
a(dp102
S'A'
p103
(lp104
S'aB'
p105
aS'bA'
p106
aS'a'
p107
asS'C'
p108
(lp109
S'aD'
p110
aS'bC'
p111
aS'b'
p112
asS'B'
p113
(lp114
S'bB'
p115
aS'aA'
p116
ag112
asg101
(lp117
S'aB'
p118
aS'aD'
p119
aS'bA'
p120
aS'bC'
p121
ag107
ag112
aS'&'
p122
asS'D'
p123
(lp124
S'aC'
p125
aS'bD'
p126
ag107
asasS'gr_11a'
p127
(lp128
S'S'
p129
a(dp130
S'A'
p131
(lp132
S'a'
p133
aS'aS'
p134
aS'bB'
p135
asg129
(lp136
S'aA'
p137
aS'b'
p138
aS'bC'
p139
asS'B'
p140
(lp141
g133
aS'aS'
p142
asS'C'
p143
(lp144
S'aA'
p145
asasS'test_sentence'
p146
(lp147
S'S'
p148
a(dp149
S'A'
p150
(lp151
S'bA'
p152
aS'a'
p153
aS'bB'
p154
asg148
(lp155
S'aA'
p156
asS'B'
p157
(lp158
S'c'
p159
aS'cA'
p160
asasS'gr_test'
p161
(lp162
S'S'
p163
a(dp164
g163
(lp165
S'aS'
p166
aS'a'
p167
aS'bB'
p168
asS'B'
p169
(lp170
S'b'
p171
aS'bS'
p172
aS'aS'
p173
ag167
asasS'newest_and_simple'
p174
(lp175
S'S'
p176
a(dp177
g176
(lp178
S'a'
p179
aS'aS'
p180
asasS'gr_a_par_sem_bb'
p181
(lp182
S'S'
p183
a(dp184
S'A'
p185
(lp186
S'a'
p187
aS'aZ'
p188
aS'bC'
p189
asg183
(lp190
S'&'
p191
aS'b'
p192
aS'aA'
p193
aS'bB'
p194
asS'B'
p195
(lp196
S'aA'
p197
asS'Z'
p198
(lp199
g192
aS'aA'
p200
aS'bB'
p201
asS'C'
p202
(lp203
g187
aS'aZ'
p204
asasS'gr_random'
p205
(lp206
S'A'
p207
a(dp208
g207
(lp209
S'aA'
p210
aS'b'
p211
aS'cS'
p212
asS'S'
p213
(lp214
S'cA'
p215
asas.