(dp0
S'aa'
p1
(lp2
S'A'
p3
a(dp4
g3
(lp5
S'a'
p6
asasS'gr_test2'
p7
(lp8
S'S'
p9
a(dp10
g9
(lp11
S'&'
p12
aS'a'
p13
aS'bB'
p14
asS'B'
p15
(lp16
S'bB'
p17
aS'aB'
p18
aS'b'
p19
asasS'gr_11a'
p20
(lp21
S'S'
p22
a(dp23
S'A'
p24
(lp25
S'a'
p26
aS'aS'
p27
aS'bB'
p28
asg22
(lp29
S'aA'
p30
aS'b'
p31
aS'bC'
p32
asS'B'
p33
(lp34
g26
aS'aS'
p35
asS'C'
p36
(lp37
S'aA'
p38
asasS'gr_test'
p39
(lp40
S'S'
p41
a(dp42
g41
(lp43
S'aS'
p44
aS'a'
p45
aS'bB'
p46
asS'B'
p47
(lp48
S'b'
p49
aS'bS'
p50
aS'aS'
p51
ag45
asasS'lista_2_4a_fake'
p52
(lp53
S'S'
p54
a(dp55
S'A'
p56
(lp57
S'aB'
p58
aS'bA'
p59
aS'a'
p60
asS'C'
p61
(lp62
S'aD'
p63
aS'bC'
p64
aS'b'
p65
asS'B'
p66
(lp67
S'bB'
p68
aS'aA'
p69
ag65
asS'E'
p70
(lp71
S'd'
p72
asS'D'
p73
(lp74
S'aC'
p75
aS'bD'
p76
ag60
aS'dE'
p77
asg54
(lp78
S'aB'
p79
aS'aD'
p80
aS'bA'
p81
aS'bC'
p82
ag60
ag65
aS'&'
p83
asasS'test_sentence'
p84
(lp85
S'S'
p86
a(dp87
S'A'
p88
(lp89
S'bA'
p90
aS'a'
p91
aS'bB'
p92
asg86
(lp93
S'aA'
p94
aS'a'
p95
asS'B'
p96
(lp97
S'c'
p98
aS'cA'
p99
asasS'gr_3'
p100
(lp101
S'S'
p102
a(dp103
S'A'
p104
(lp105
S'c'
p106
asg102
(lp107
S'aA'
p108
aS'bB'
p109
asS'B'
p110
(lp111
g106
asasS'gr_main'
p112
(lp113
S'S'
p114
a(dp115
S'A'
p116
(lp117
S'a'
p118
aS'aT'
p119
aS'bC'
p120
asS'C'
p121
(lp122
S'bA'
p123
aS'aB'
p124
asS'B'
p125
(lp126
S'b'
p127
aS'bT'
p128
aS'aC'
p129
asg114
(lp130
S'&'
p131
aS'aA'
p132
aS'bB'
p133
asS'T'
p134
(lp135
S'aA'
p136
aS'bB'
p137
asasS'gr_1'
p138
(lp139
S'S'
p140
a(dp141
g140
(lp142
S'aS'
p143
aS'a'
p144
aS'bB'
p145
asS'B'
p146
(lp147
S'bS'
p148
aS'c'
p149
aS'cC'
p150
asS'C'
p151
(lp152
S'cS'
p153
aS'b'
p154
asasS'filename'
p155
(lp156
S'A'
p157
a(dp158
g157
(lp159
S'aS'
p160
asS'S'
p161
(lp162
S'b'
p163
asasS'gramatica_a_par'
p164
(lp165
S'S'
p166
a(dp167
S'A'
p168
(lp169
S'bA'
p170
aS'a'
p171
aS'aS'
p172
asg166
(lp173
g171
aS'bS'
p174
aS'b'
p175
aS'aA'
p176
asasS'gramatica_de'
p177
(lp178
S'S'
p179
a(dp180
g179
(lp181
S'd'
p182
aS'dD'
p183
asS'D'
p184
(lp185
S'e'
p186
asasS'newest_and_simple'
p187
(lp188
S'S'
p189
a(dp190
g189
(lp191
S'a'
p192
aS'aS'
p193
asasS'gramatica_bababa...'
p194
(lp195
S'S'
p196
a(dp197
g196
(lp198
S'bB'
p199
asS'B'
p200
(lp201
S'aS'
p202
aS'a'
p203
asasS'lista2_4a'
p204
(lp205
S'S'
p206
a(dp207
S'A'
p208
(lp209
S'aB'
p210
aS'bA'
p211
aS'a'
p212
asS'C'
p213
(lp214
S'aD'
p215
aS'bC'
p216
aS'b'
p217
asS'B'
p218
(lp219
S'bB'
p220
aS'aA'
p221
ag217
asg206
(lp222
S'aB'
p223
aS'aD'
p224
aS'bA'
p225
aS'bC'
p226
ag212
ag217
aS'&'
p227
asS'D'
p228
(lp229
S'aC'
p230
aS'bD'
p231
ag212
asasS'A_GRAMATICA'
p232
(lp233
S'S'
p234
a(dp235
g234
(lp236
S'a'
p237
asasS'gramatica_legal'
p238
(lp239
S'S'
p240
a(dp241
g240
(lp242
S'c'
p243
asasS'example_1'
p244
(lp245
S'S'
p246
a(dp247
S'A'
p248
(lp249
S'bB'
p250
asg246
(lp251
S'aS'
p252
aS'bS'
p253
aS'aA'
p254
asS'B'
p255
(lp256
S'b'
p257
asasS'B_Gramatica'
p258
(lp259
S'S'
p260
a(dp261
g260
(lp262
S'aB'
p263
asS'B'
p264
(lp265
S'bS'
p266
aS'b'
p267
asasS'new_grammar'
p268
(lp269
S'S'
p270
a(dp271
g270
(lp272
S'aB'
p273
asS'B'
p274
(lp275
S'bE'
p276
asS'E'
p277
(lp278
S'x'
p279
asasS'gr_a_par_sem_bb'
p280
(lp281
S'S'
p282
a(dp283
S'A'
p284
(lp285
S'a'
p286
aS'aZ'
p287
aS'bC'
p288
asg282
(lp289
S'&'
p290
aS'b'
p291
aS'aA'
p292
aS'bB'
p293
asS'B'
p294
(lp295
S'aA'
p296
asS'Z'
p297
(lp298
g291
aS'aA'
p299
aS'bB'
p300
asS'C'
p301
(lp302
g286
aS'aZ'
p303
asasS'TESTE__'
p304
(lp305
S'S'
p306
a(dp307
g306
(lp308
S'aS'
p309
asasS'gr_random'
p310
(lp311
S'A'
p312
a(dp313
g312
(lp314
S'aA'
p315
aS'b'
p316
aS'cS'
p317
asS'S'
p318
(lp319
S'cA'
p320
asas.