(dp0
S'gramatica_a_par'
p1
(lp2
S'S'
p3
a(dp4
S'A'
p5
(lp6
S'bA'
p7
aS'a'
p8
aS'aS'
p9
asg3
(lp10
g8
aS'bS'
p11
aS'b'
p12
aS'aA'
p13
asasS'gr_3'
p14
(lp15
S'S'
p16
a(dp17
S'A'
p18
(lp19
S'c'
p20
asg16
(lp21
S'aA'
p22
aS'bB'
p23
asS'B'
p24
(lp25
g20
asasS'gr_main'
p26
(lp27
S'S'
p28
a(dp29
S'A'
p30
(lp31
S'a'
p32
aS'aT'
p33
aS'bC'
p34
asS'C'
p35
(lp36
S'bA'
p37
aS'aB'
p38
asS'B'
p39
(lp40
S'b'
p41
aS'bT'
p42
aS'aC'
p43
asg28
(lp44
S'&'
p45
aS'aA'
p46
aS'bB'
p47
asS'T'
p48
(lp49
S'aA'
p50
aS'bB'
p51
asasS'gr_1'
p52
(lp53
S'S'
p54
a(dp55
g54
(lp56
S'aS'
p57
aS'a'
p58
aS'bB'
p59
asS'B'
p60
(lp61
S'bS'
p62
aS'c'
p63
aS'cC'
p64
asS'C'
p65
(lp66
S'cS'
p67
aS'b'
p68
asasS'gr_test2'
p69
(lp70
S'S'
p71
a(dp72
g71
(lp73
S'&'
p74
aS'a'
p75
aS'bB'
p76
asS'B'
p77
(lp78
S'bB'
p79
aS'aB'
p80
aS'b'
p81
asasS'lista2_4a'
p82
(lp83
S'S'
p84
a(dp85
S'A'
p86
(lp87
S'aB'
p88
aS'bA'
p89
aS'a'
p90
asS'C'
p91
(lp92
S'aD'
p93
aS'bC'
p94
aS'b'
p95
asS'B'
p96
(lp97
S'bB'
p98
aS'aA'
p99
ag95
asg84
(lp100
S'aB'
p101
aS'aD'
p102
aS'bA'
p103
aS'bC'
p104
ag90
ag95
aS'&'
p105
asS'D'
p106
(lp107
S'aC'
p108
aS'bD'
p109
ag90
asasS'gr_11a'
p110
(lp111
S'S'
p112
a(dp113
S'A'
p114
(lp115
S'a'
p116
aS'aS'
p117
aS'bB'
p118
asg112
(lp119
S'aA'
p120
aS'b'
p121
aS'bC'
p122
asS'B'
p123
(lp124
g116
aS'aS'
p125
asS'C'
p126
(lp127
S'aA'
p128
asasS'gr_test'
p129
(lp130
S'S'
p131
a(dp132
g131
(lp133
S'aS'
p134
aS'a'
p135
aS'bB'
p136
asS'B'
p137
(lp138
S'b'
p139
aS'bS'
p140
aS'aS'
p141
ag135
asasS'gr_random'
p142
(lp143
S'A'
p144
a(dp145
g144
(lp146
S'aA'
p147
aS'b'
p148
aS'cS'
p149
asS'S'
p150
(lp151
S'cA'
p152
asas.