(dp0
S'aa'
p1
(lp2
S'A'
p3
a(dp4
g3
(lp5
S'a'
p6
asasS'gr_test2'
p7
(lp8
S'S'
p9
a(dp10
g9
(lp11
S'&'
p12
aS'a'
p13
aS'bB'
p14
asS'B'
p15
(lp16
S'bB'
p17
aS'aB'
p18
aS'b'
p19
asasS'gr_11a'
p20
(lp21
S'S'
p22
a(dp23
S'A'
p24
(lp25
S'a'
p26
aS'aS'
p27
aS'bB'
p28
asg22
(lp29
S'aA'
p30
aS'b'
p31
aS'bC'
p32
asS'B'
p33
(lp34
g26
aS'aS'
p35
asS'C'
p36
(lp37
S'aA'
p38
asasS'gr_test'
p39
(lp40
S'S'
p41
a(dp42
g41
(lp43
S'aS'
p44
aS'a'
p45
aS'bB'
p46
asS'B'
p47
(lp48
S'b'
p49
aS'bS'
p50
aS'aS'
p51
ag45
asasS'test_sentence'
p52
(lp53
S'S'
p54
a(dp55
S'A'
p56
(lp57
S'bA'
p58
aS'a'
p59
aS'bB'
p60
asg54
(lp61
S'aA'
p62
asS'B'
p63
(lp64
S'c'
p65
aS'cA'
p66
asasS'gr_3'
p67
(lp68
S'S'
p69
a(dp70
S'A'
p71
(lp72
S'c'
p73
asg69
(lp74
S'aA'
p75
aS'bB'
p76
asS'B'
p77
(lp78
g73
asasS'gr_main'
p79
(lp80
S'S'
p81
a(dp82
S'A'
p83
(lp84
S'a'
p85
aS'aT'
p86
aS'bC'
p87
asS'C'
p88
(lp89
S'bA'
p90
aS'aB'
p91
asS'B'
p92
(lp93
S'b'
p94
aS'bT'
p95
aS'aC'
p96
asg81
(lp97
S'&'
p98
aS'aA'
p99
aS'bB'
p100
asS'T'
p101
(lp102
S'aA'
p103
aS'bB'
p104
asasS'gr_1'
p105
(lp106
S'S'
p107
a(dp108
g107
(lp109
S'aS'
p110
aS'a'
p111
aS'bB'
p112
asS'B'
p113
(lp114
S'bS'
p115
aS'c'
p116
aS'cC'
p117
asS'C'
p118
(lp119
S'cS'
p120
aS'b'
p121
asasS'filename'
p122
(lp123
S'A'
p124
a(dp125
g124
(lp126
S'aS'
p127
asS'S'
p128
(lp129
S'b'
p130
asasS'gramatica_a_par'
p131
(lp132
S'S'
p133
a(dp134
S'A'
p135
(lp136
S'bA'
p137
aS'a'
p138
aS'aS'
p139
asg133
(lp140
g138
aS'bS'
p141
aS'b'
p142
aS'aA'
p143
asasS'gramatica_de'
p144
(lp145
S'S'
p146
a(dp147
g146
(lp148
S'd'
p149
aS'dD'
p150
asS'D'
p151
(lp152
S'e'
p153
asasS'newest_and_simple'
p154
(lp155
S'S'
p156
a(dp157
g156
(lp158
S'a'
p159
aS'aS'
p160
asasS'gramatica_bababa...'
p161
(lp162
S'S'
p163
a(dp164
g163
(lp165
S'bB'
p166
asS'B'
p167
(lp168
S'aS'
p169
aS'a'
p170
asasS'lista2_4a'
p171
(lp172
S'S'
p173
a(dp174
S'A'
p175
(lp176
S'aB'
p177
aS'bA'
p178
aS'a'
p179
asS'C'
p180
(lp181
S'aD'
p182
aS'bC'
p183
aS'b'
p184
asS'B'
p185
(lp186
S'bB'
p187
aS'aA'
p188
ag184
asg173
(lp189
S'aB'
p190
aS'aD'
p191
aS'bA'
p192
aS'bC'
p193
ag179
ag184
aS'&'
p194
asS'D'
p195
(lp196
S'aC'
p197
aS'bD'
p198
ag179
asasS'A_GRAMATICA'
p199
(lp200
S'S'
p201
a(dp202
g201
(lp203
S'a'
p204
asasS'gramatica_legal'
p205
(lp206
S'S'
p207
a(dp208
g207
(lp209
S'c'
p210
asasS'example_1'
p211
(lp212
S'S'
p213
a(dp214
S'A'
p215
(lp216
S'bB'
p217
asg213
(lp218
S'aS'
p219
aS'bS'
p220
aS'aA'
p221
asS'B'
p222
(lp223
S'b'
p224
asasS'B_Gramatica'
p225
(lp226
S'S'
p227
a(dp228
g227
(lp229
S'aB'
p230
asS'B'
p231
(lp232
S'bS'
p233
aS'b'
p234
asasS'new_grammar'
p235
(lp236
S'S'
p237
a(dp238
g237
(lp239
S'aB'
p240
asS'B'
p241
(lp242
S'bE'
p243
asS'E'
p244
(lp245
S'x'
p246
asasS'gr_a_par_sem_bb'
p247
(lp248
S'S'
p249
a(dp250
S'A'
p251
(lp252
S'a'
p253
aS'aZ'
p254
aS'bC'
p255
asg249
(lp256
S'&'
p257
aS'b'
p258
aS'aA'
p259
aS'bB'
p260
asS'B'
p261
(lp262
S'aA'
p263
asS'Z'
p264
(lp265
g258
aS'aA'
p266
aS'bB'
p267
asS'C'
p268
(lp269
g253
aS'aZ'
p270
asasS'TESTE__'
p271
(lp272
S'S'
p273
a(dp274
g273
(lp275
S'aS'
p276
asasS'gr_random'
p277
(lp278
S'A'
p279
a(dp280
g279
(lp281
S'aA'
p282
aS'b'
p283
aS'cS'
p284
asS'S'
p285
(lp286
S'cA'
p287
asas.