(dp0
S'gramatica_a_par'
p1
(lp2
S'S'
p3
a(dp4
S'A'
p5
(lp6
S'bA'
p7
aS'a'
p8
aS'aS'
p9
asg3
(lp10
g8
aS'bS'
p11
aS'b'
p12
aS'aA'
p13
asasS'gr_1'
p14
(lp15
S'S'
p16
a(dp17
g16
(lp18
S'aS'
p19
aS'a'
p20
aS'bB'
p21
asS'B'
p22
(lp23
S'bS'
p24
aS'c'
p25
aS'cC'
p26
asS'C'
p27
(lp28
S'cS'
p29
aS'b'
p30
asasS'gr_3'
p31
(lp32
S'S'
p33
a(dp34
S'A'
p35
(lp36
S'c'
p37
asg33
(lp38
S'aA'
p39
aS'bB'
p40
asS'B'
p41
(lp42
g37
asasS'gr_main'
p43
(lp44
S'S'
p45
a(dp46
S'A'
p47
(lp48
S'a'
p49
aS'aT'
p50
aS'bC'
p51
asS'C'
p52
(lp53
S'bA'
p54
aS'aB'
p55
asS'B'
p56
(lp57
S'b'
p58
aS'bT'
p59
aS'aC'
p60
asg45
(lp61
S'&'
p62
aS'aA'
p63
aS'bB'
p64
asS'T'
p65
(lp66
S'aA'
p67
aS'bB'
p68
asasS'example_1'
p69
(lp70
S'S'
p71
a(dp72
S'A'
p73
(lp74
S'bB'
p75
asg71
(lp76
S'aS'
p77
aS'bS'
p78
aS'aA'
p79
asS'B'
p80
(lp81
S'b'
p82
asasS'gr_test2'
p83
(lp84
S'S'
p85
a(dp86
g85
(lp87
S'&'
p88
aS'a'
p89
aS'bB'
p90
asS'B'
p91
(lp92
S'bB'
p93
aS'aB'
p94
aS'b'
p95
asasS'lista2_4a'
p96
(lp97
S'S'
p98
a(dp99
S'A'
p100
(lp101
S'aB'
p102
aS'bA'
p103
aS'a'
p104
asS'C'
p105
(lp106
S'aD'
p107
aS'bC'
p108
aS'b'
p109
asS'B'
p110
(lp111
S'bB'
p112
aS'aA'
p113
ag109
asg98
(lp114
S'aB'
p115
aS'aD'
p116
aS'bA'
p117
aS'bC'
p118
ag104
ag109
aS'&'
p119
asS'D'
p120
(lp121
S'aC'
p122
aS'bD'
p123
ag104
asasS'gr_11a'
p124
(lp125
S'S'
p126
a(dp127
S'A'
p128
(lp129
S'a'
p130
aS'aS'
p131
aS'bB'
p132
asg126
(lp133
S'aA'
p134
aS'b'
p135
aS'bC'
p136
asS'B'
p137
(lp138
g130
aS'aS'
p139
asS'C'
p140
(lp141
S'aA'
p142
asasS'gr_test'
p143
(lp144
S'S'
p145
a(dp146
g145
(lp147
S'aS'
p148
aS'a'
p149
aS'bB'
p150
asS'B'
p151
(lp152
S'b'
p153
aS'bS'
p154
aS'aS'
p155
ag149
asasS'gr_a_par_sem_bb'
p156
(lp157
S'S'
p158
a(dp159
S'A'
p160
(lp161
S'a'
p162
aS'aZ'
p163
aS'bC'
p164
asg158
(lp165
S'&'
p166
aS'b'
p167
aS'aA'
p168
aS'bB'
p169
asS'B'
p170
(lp171
S'aA'
p172
asS'Z'
p173
(lp174
g167
aS'aA'
p175
aS'bB'
p176
asS'C'
p177
(lp178
g162
aS'aZ'
p179
asasS'gr_random'
p180
(lp181
S'A'
p182
a(dp183
g182
(lp184
S'aA'
p185
aS'b'
p186
aS'cS'
p187
asS'S'
p188
(lp189
S'cA'
p190
asas.