(dp0
S'lista2_4a'
p1
(lp2
S'S'
p3
a(dp4
S'A'
p5
(lp6
S'aB'
p7
aS'bA'
p8
aS'a'
p9
asS'C'
p10
(lp11
S'aD'
p12
aS'bC'
p13
aS'b'
p14
asS'B'
p15
(lp16
S'bB'
p17
aS'aA'
p18
ag14
asg3
(lp19
S'aB'
p20
aS'aD'
p21
aS'bA'
p22
aS'bC'
p23
ag9
ag14
aS'&'
p24
asS'D'
p25
(lp26
S'aC'
p27
aS'bD'
p28
ag9
asasS'example_1'
p29
(lp30
S'S'
p31
a(dp32
S'A'
p33
(lp34
S'bB'
p35
asg31
(lp36
S'aS'
p37
aS'bS'
p38
aS'aA'
p39
asS'B'
p40
(lp41
S'b'
p42
asasS'gr_3'
p43
(lp44
S'S'
p45
a(dp46
S'A'
p47
(lp48
S'c'
p49
asg45
(lp50
S'aA'
p51
aS'bB'
p52
asS'B'
p53
(lp54
g49
asasS'gr_main'
p55
(lp56
S'S'
p57
a(dp58
S'A'
p59
(lp60
S'a'
p61
aS'aT'
p62
aS'bC'
p63
asS'C'
p64
(lp65
S'bA'
p66
aS'aB'
p67
asS'B'
p68
(lp69
S'b'
p70
aS'bT'
p71
aS'aC'
p72
asg57
(lp73
S'&'
p74
aS'aA'
p75
aS'bB'
p76
asS'T'
p77
(lp78
S'aA'
p79
aS'bB'
p80
asasS'gr_1'
p81
(lp82
S'S'
p83
a(dp84
g83
(lp85
S'aS'
p86
aS'a'
p87
aS'bB'
p88
asS'B'
p89
(lp90
S'bS'
p91
aS'c'
p92
aS'cC'
p93
asS'C'
p94
(lp95
S'cS'
p96
aS'b'
p97
asasS'gr_test2'
p98
(lp99
S'S'
p100
a(dp101
g100
(lp102
S'&'
p103
aS'a'
p104
aS'bB'
p105
asS'B'
p106
(lp107
S'bB'
p108
aS'aB'
p109
aS'b'
p110
asasS'gramatica_a_par'
p111
(lp112
S'S'
p113
a(dp114
S'A'
p115
(lp116
S'bA'
p117
aS'a'
p118
aS'aS'
p119
asg113
(lp120
g118
aS'bS'
p121
aS'b'
p122
aS'aA'
p123
asasS'gr_11a'
p124
(lp125
S'S'
p126
a(dp127
S'A'
p128
(lp129
S'a'
p130
aS'aS'
p131
aS'bB'
p132
asg126
(lp133
S'aA'
p134
aS'b'
p135
aS'bC'
p136
asS'B'
p137
(lp138
g130
aS'aS'
p139
asS'C'
p140
(lp141
S'aA'
p142
asasS'gr_test'
p143
(lp144
S'S'
p145
a(dp146
g145
(lp147
S'aS'
p148
aS'a'
p149
aS'bB'
p150
asS'B'
p151
(lp152
S'b'
p153
aS'bS'
p154
aS'aS'
p155
ag149
asasS'gr_random'
p156
(lp157
S'A'
p158
a(dp159
g158
(lp160
S'aA'
p161
aS'b'
p162
aS'cS'
p163
asS'S'
p164
(lp165
S'cA'
p166
asas.