(dp0
S'lista2_4a'
p1
(lp2
S'S'
p3
a(dp4
S'A'
p5
(lp6
S'aB'
p7
aS'bA'
p8
aS'a'
p9
asS'C'
p10
(lp11
S'aD'
p12
aS'bC'
p13
aS'b'
p14
asg3
(lp15
S'aB'
p16
aS'aD'
p17
aS'bA'
p18
aS'bC'
p19
ag9
ag14
aS'&'
p20
asS'B'
p21
(lp22
S'bB'
p23
aS'aA'
p24
ag14
asS'D'
p25
(lp26
S'aC'
p27
aS'bD'
p28
ag9
asasS'gr_3'
p29
(lp30
S'S'
p31
a(dp32
S'A'
p33
(lp34
S'c'
p35
asg31
(lp36
S'aA'
p37
aS'bB'
p38
asS'B'
p39
(lp40
g35
asasS'gr_main'
p41
(lp42
S'S'
p43
a(dp44
S'A'
p45
(lp46
S'a'
p47
aS'aT'
p48
aS'bC'
p49
asS'C'
p50
(lp51
S'bA'
p52
aS'aB'
p53
asS'B'
p54
(lp55
S'b'
p56
aS'bT'
p57
aS'aC'
p58
asg43
(lp59
S'&'
p60
aS'aA'
p61
aS'bB'
p62
asS'T'
p63
(lp64
S'aA'
p65
aS'bB'
p66
asasS'gr_1'
p67
(lp68
S'S'
p69
a(dp70
g69
(lp71
S'aS'
p72
aS'a'
p73
aS'bB'
p74
asS'B'
p75
(lp76
S'bS'
p77
aS'c'
p78
aS'cC'
p79
asS'C'
p80
(lp81
S'cS'
p82
aS'b'
p83
asasS'gr_test2'
p84
(lp85
S'S'
p86
a(dp87
g86
(lp88
S'&'
p89
aS'a'
p90
aS'bB'
p91
asS'B'
p92
(lp93
S'bB'
p94
aS'aB'
p95
aS'b'
p96
asasS'gramatica_a_par'
p97
(lp98
S'S'
p99
a(dp100
S'A'
p101
(lp102
S'bA'
p103
aS'a'
p104
aS'aS'
p105
asg99
(lp106
g104
aS'bS'
p107
aS'b'
p108
aS'aA'
p109
asasS'gr_test'
p110
(lp111
S'S'
p112
a(dp113
g112
(lp114
S'aS'
p115
aS'a'
p116
aS'bB'
p117
asS'B'
p118
(lp119
S'b'
p120
aS'bS'
p121
aS'aS'
p122
ag116
asasS'gr_random'
p123
(lp124
S'A'
p125
a(dp126
g125
(lp127
S'aA'
p128
aS'b'
p129
aS'cS'
p130
asS'S'
p131
(lp132
S'cA'
p133
asas.