(dp0
S'regex-1'
p1
(lp2
S'(ab|ba)*'
p3
a(lp4
(dp5
S'*'
p6
(dp7
S'|'
p8
(lp9
(lp10
S'a'
p11
aS'b'
p12
aa(lp13
g12
ag11
aassaasS'x'
p14
(lp15
S'abba'
p16
a(lp17
S'a'
p18
aS'b'
p19
ag19
ag18
aasS'regex-3'
p20
(lp21
S'a?((ab)+(ba)*)+b?'
p22
a(lp23
(dp24
S'?'
p25
S'a'
p26
sa(dp27
S'+'
p28
(lp29
(dp30
g28
(lp31
g26
aS'b'
p32
asa(dp33
S'*'
p34
(lp35
g32
ag26
asasa(dp36
g25
g32
saasS'regex-2'
p37
(lp38
S'baba'
p39
a(lp40
g32
ag26
ag32
ag26
aasS'abba'
p41
(lp42
S'(ab|ba)*c*'
p43
a(lp44
(dp45
S'*'
p46
(dp47
S'|'
p48
(lp49
(lp50
S'a'
p51
aS'b'
p52
aa(lp53
g52
ag51
aassa(dp54
g46
S'c'
p55
saas.