(dp0
S'first_regex'
p1
(lp2
S'(ab|ba)*(cd|dc)*d?d?'
p3
a(lp4
(dp5
S'*'
p6
(dp7
S'|'
p8
(lp9
(lp10
S'a'
p11
aS'b'
p12
aa(lp13
g12
ag11
aassa(dp14
g6
(dp15
g8
(lp16
(lp17
S'c'
p18
aS'd'
p19
aa(lp20
g19
ag18
aassa(dp21
S'?'
p22
g19
sa(dp23
g22
g19
saas.