(dp0
S'abba'
p1
(lp2
S'(ab|ba)*c*'
p3
a(lp4
(dp5
S'*'
p6
(dp7
S'|'
p8
(lp9
(lp10
S'a'
p11
aS'b'
p12
aa(lp13
g12
ag11
aassa(dp14
g6
S'c'
p15
saasS'legal_1'
p16
(lp17
S'(ab|ba)*'
p18
a(lp19
(dp20
S'*'
p21
(dp22
S'|'
p23
(lp24
(lp25
S'a'
p26
aS'b'
p27
aa(lp28
g27
ag26
aassaasS'regex-1'
p29
(lp30
S'(ab|ba)*'
p31
a(lp32
(dp33
S'*'
p34
(dp35
S'|'
p36
(lp37
(lp38
S'a'
p39
aS'b'
p40
aa(lp41
g40
ag39
aassaasS'regex-3'
p42
(lp43
S'a?((ab)+(ba)*)+b?'
p44
a(lp45
(dp46
S'?'
p47
S'a'
p48
sa(dp49
S'+'
p50
(lp51
(dp52
g50
(lp53
g48
aS'b'
p54
asa(dp55
S'*'
p56
(lp57
g54
ag48
asasa(dp58
g47
g54
saasS'regex-2'
p59
(lp60
S'baba'
p61
a(lp62
g54
ag48
ag54
ag48
aasS'x'
p63
(lp64
S'abba'
p65
a(lp66
S'a'
p67
aS'b'
p68
ag68
ag67
aas.