(dp0
S'regex_new2'
p1
(lp2
S'bababbaa'
p3
a(lp4
S'b'
p5
aS'a'
p6
ag5
ag6
ag5
ag5
ag6
ag6
aasS'abba'
p7
(lp8
S'(ab|ba)*c*'
p9
a(lp10
(dp11
S'*'
p12
(dp13
S'|'
p14
(lp15
(lp16
S'a'
p17
aS'b'
p18
aa(lp19
g18
ag17
aassa(dp20
g12
S'c'
p21
saasS'legal_1'
p22
(lp23
S'(ab|ba)*'
p24
a(lp25
(dp26
S'*'
p27
(dp28
S'|'
p29
(lp30
(lp31
S'a'
p32
aS'b'
p33
aa(lp34
g33
ag32
aassaasS'regex-3'
p35
(lp36
S'a?((ab)+(ba)*)+b?'
p37
a(lp38
(dp39
S'?'
p40
S'a'
p41
sa(dp42
S'+'
p43
(lp44
(dp45
g43
(lp46
g41
aS'b'
p47
asa(dp48
S'*'
p49
(lp50
g47
ag41
asasa(dp51
g40
g47
saasS'regex-1'
p52
(lp53
S'(ab|ba)*'
p54
a(lp55
(dp56
S'*'
p57
(dp58
S'|'
p59
(lp60
(lp61
S'a'
p62
aS'b'
p63
aa(lp64
g63
ag62
aassaasS'cacca'
p65
(lp66
S''
p67
a(lp68
asS'regex-2'
p69
(lp70
S'baba'
p71
a(lp72
g47
ag41
ag47
ag41
aasS'cacaaa'
p73
(lp74
S'cacaaa'
p75
a(lp76
S'c'
p77
aS'a'
p78
ag77
ag78
ag78
ag78
aasS'minha_regex'
p79
(lp80
S'(a|b)*(b|a)*'
p81
a(lp82
(dp83
S'*'
p84
(dp85
S'|'
p86
(lp87
(lp88
S'a'
p89
aa(lp90
S'b'
p91
aassa(dp92
g84
(dp93
g86
(lp94
(lp95
g91
aa(lp96
g89
aassaasS'x'
p97
(lp98
S'abba'
p99
a(lp100
S'a'
p101
aS'b'
p102
ag102
ag101
aasS'reg_gabriel'
p103
(lp104
S'(gabriel)'
p105
a(lp106
(lp107
S'g'
p108
aS'a'
p109
aS'b'
p110
aS'r'
p111
aS'i'
p112
aS'e'
p113
aS'l'
p114
aaasS'abba_2'
p115
(lp116
S'abba'
p117
a(lp118
S'a'
p119
aS'b'
p120
ag120
ag119
aas.